target datalayout = "e-m:e-p270:32:32-p271:32:32-p272:64:64-i64:64-i128:128-f80:128-n8:16:32:64-S128"
target triple = "x86_64-pc-linux-gnu"

%"class.LIEF::PE::Signature" = type { %"class.LIEF::Object", i32, i32, %"class.LIEF::PE::ContentInfo", %"class.std::vector.46", %"class.std::vector.51", i64, i64, %"class.std::vector.56" }
%"class.LIEF::Object" = type { ptr }
%"class.LIEF::PE::ContentInfo" = type { %"class.LIEF::Object", %"class.std::unique_ptr.38" }
%"class.std::unique_ptr.38" = type { %"struct.std::__uniq_ptr_data.39" }
%"struct.std::__uniq_ptr_data.39" = type { %"class.std::__uniq_ptr_impl.40" }
%"class.std::__uniq_ptr_impl.40" = type { %"class.std::tuple.41" }
%"class.std::tuple.41" = type { %"struct.std::_Tuple_impl.42" }
%"struct.std::_Tuple_impl.42" = type { %"struct.std::_Head_base.45" }
%"struct.std::_Head_base.45" = type { ptr }
%"class.std::vector.46" = type { %"struct.std::_Vector_base.47" }
%"struct.std::_Vector_base.47" = type { %"struct.std::_Vector_base<LIEF::PE::x509, std::allocator<LIEF::PE::x509>>::_Vector_impl" }
%"struct.std::_Vector_base<LIEF::PE::x509, std::allocator<LIEF::PE::x509>>::_Vector_impl" = type { %"struct.std::_Vector_base<LIEF::PE::x509, std::allocator<LIEF::PE::x509>>::_Vector_impl_data" }
%"struct.std::_Vector_base<LIEF::PE::x509, std::allocator<LIEF::PE::x509>>::_Vector_impl_data" = type { ptr, ptr, ptr }
%"class.std::vector.51" = type { %"struct.std::_Vector_base.52" }
%"struct.std::_Vector_base.52" = type { %"struct.std::_Vector_base<LIEF::PE::SignerInfo, std::allocator<LIEF::PE::SignerInfo>>::_Vector_impl" }
%"struct.std::_Vector_base<LIEF::PE::SignerInfo, std::allocator<LIEF::PE::SignerInfo>>::_Vector_impl" = type { %"struct.std::_Vector_base<LIEF::PE::SignerInfo, std::allocator<LIEF::PE::SignerInfo>>::_Vector_impl_data" }
%"struct.std::_Vector_base<LIEF::PE::SignerInfo, std::allocator<LIEF::PE::SignerInfo>>::_Vector_impl_data" = type { ptr, ptr, ptr }
%"class.std::vector.56" = type { %"struct.std::_Vector_base.57" }
%"struct.std::_Vector_base.57" = type { %"struct.std::_Vector_base<unsigned char, std::allocator<unsigned char>>::_Vector_impl" }
%"struct.std::_Vector_base<unsigned char, std::allocator<unsigned char>>::_Vector_impl" = type { %"struct.std::_Vector_base<unsigned char, std::allocator<unsigned char>>::_Vector_impl_data" }
%"struct.std::_Vector_base<unsigned char, std::allocator<unsigned char>>::_Vector_impl_data" = type { ptr, ptr, ptr }

@_ZTVN4LIEF2PE11ContentInfoE = external unnamed_addr constant { [7 x ptr] }, align 8

; Function Attrs: mustprogress nounwind uwtable
define linkonce_odr hidden noundef nonnull align 1 dereferenceable(1) ptr @_ZNSt10_Head_baseILm1ESt14default_deleteIN4LIEF2PE11ContentInfo7ContentEELb1EE7_M_headERS6_(ptr noundef nonnull align 1 dereferenceable(1) %0) #1 comdat align 2 {
  %2 = alloca ptr, align 8
  store ptr %0, ptr %2, align 8, !tbaa !231
  %3 = load ptr, ptr %2, align 8, !tbaa !231
  ret ptr %3
}

; Function Attrs: mustprogress nounwind uwtable
define linkonce_odr hidden noundef nonnull align 1 dereferenceable(1) ptr @_ZNSt11_Tuple_implILm1EJSt14default_deleteIN4LIEF2PE11ContentInfo7ContentEEEE7_M_headERS6_(ptr noundef nonnull align 1 dereferenceable(1) %0) #1 comdat align 2 {
  %2 = alloca ptr, align 8
  store ptr %0, ptr %2, align 8, !tbaa !229
  %3 = load ptr, ptr %2, align 8, !tbaa !229
  %4 = call noundef nonnull align 1 dereferenceable(1) ptr @_ZNSt10_Head_baseILm1ESt14default_deleteIN4LIEF2PE11ContentInfo7ContentEELb1EE7_M_headERS6_(ptr noundef nonnull align 1 dereferenceable(1) %3) #20
  ret ptr %4
}

; Function Attrs: mustprogress nounwind uwtable
define linkonce_odr hidden noundef nonnull align 8 dereferenceable(8) ptr @_ZNSt10_Head_baseILm0EPN4LIEF2PE11ContentInfo7ContentELb0EE7_M_headERS5_(ptr noundef nonnull align 8 dereferenceable(8) %0) #1 comdat align 2 {
  %2 = alloca ptr, align 8
  store ptr %0, ptr %2, align 8, !tbaa !227
  %3 = load ptr, ptr %2, align 8, !tbaa !227
  %4 = getelementptr inbounds nuw %"struct.std::_Head_base.45", ptr %3, i32 0, i32 0
  ret ptr %4
}

; Function Attrs: mustprogress nounwind uwtable
define linkonce_odr noundef nonnull align 1 dereferenceable(1) ptr @_ZSt12__get_helperILm1ESt14default_deleteIN4LIEF2PE11ContentInfo7ContentEEJEERT0_RSt11_Tuple_implIXT_EJS6_DpT1_EE(ptr noundef nonnull align 1 dereferenceable(1) %0) #1 comdat {
  %2 = alloca ptr, align 8
  store ptr %0, ptr %2, align 8, !tbaa !229
  %3 = load ptr, ptr %2, align 8, !tbaa !229
  %4 = call noundef nonnull align 1 dereferenceable(1) ptr @_ZNSt11_Tuple_implILm1EJSt14default_deleteIN4LIEF2PE11ContentInfo7ContentEEEE7_M_headERS6_(ptr noundef nonnull align 1 dereferenceable(1) %3) #20
  ret ptr %4
}

; Function Attrs: mustprogress nounwind uwtable
define linkonce_odr hidden noundef nonnull align 8 dereferenceable(8) ptr @_ZNSt11_Tuple_implILm0EJPN4LIEF2PE11ContentInfo7ContentESt14default_deleteIS3_EEE7_M_headERS7_(ptr noundef nonnull align 8 dereferenceable(8) %0) #1 comdat align 2 {
  %2 = alloca ptr, align 8
  store ptr %0, ptr %2, align 8, !tbaa !225
  %3 = load ptr, ptr %2, align 8, !tbaa !225
  %4 = call noundef nonnull align 8 dereferenceable(8) ptr @_ZNSt10_Head_baseILm0EPN4LIEF2PE11ContentInfo7ContentELb0EE7_M_headERS5_(ptr noundef nonnull align 8 dereferenceable(8) %3) #20
  ret ptr %4
}

; Function Attrs: mustprogress nounwind uwtable
define linkonce_odr noundef nonnull align 1 dereferenceable(1) ptr @_ZSt3getILm1EJPN4LIEF2PE11ContentInfo7ContentESt14default_deleteIS3_EEERNSt13tuple_elementIXT_ESt5tupleIJDpT0_EEE4typeERSB_(ptr noundef nonnull align 8 dereferenceable(8) %0) #1 comdat {
  %2 = alloca ptr, align 8
  store ptr %0, ptr %2, align 8, !tbaa !223
  %3 = load ptr, ptr %2, align 8, !tbaa !223
  %4 = call noundef nonnull align 1 dereferenceable(1) ptr @_ZSt12__get_helperILm1ESt14default_deleteIN4LIEF2PE11ContentInfo7ContentEEJEERT0_RSt11_Tuple_implIXT_EJS6_DpT1_EE(ptr noundef nonnull align 1 dereferenceable(1) %3) #20
  ret ptr %4
}

; Function Attrs: mustprogress nounwind uwtable
define linkonce_odr noundef nonnull align 8 dereferenceable(8) ptr @_ZSt12__get_helperILm0EPN4LIEF2PE11ContentInfo7ContentEJSt14default_deleteIS3_EEERT0_RSt11_Tuple_implIXT_EJS7_DpT1_EE(ptr noundef nonnull align 8 dereferenceable(8) %0) #1 comdat {
  %2 = alloca ptr, align 8
  store ptr %0, ptr %2, align 8, !tbaa !225
  %3 = load ptr, ptr %2, align 8, !tbaa !225
  %4 = call noundef nonnull align 8 dereferenceable(8) ptr @_ZNSt11_Tuple_implILm0EJPN4LIEF2PE11ContentInfo7ContentESt14default_deleteIS3_EEE7_M_headERS7_(ptr noundef nonnull align 8 dereferenceable(8) %3) #20
  ret ptr %4
}

; Function Attrs: mustprogress nounwind uwtable
define linkonce_odr hidden noundef nonnull align 1 dereferenceable(1) ptr @_ZNSt15__uniq_ptr_implIN4LIEF2PE11ContentInfo7ContentESt14default_deleteIS3_EE10_M_deleterEv(ptr noundef nonnull align 8 dereferenceable(8) %0) #1 comdat align 2 {
  %2 = alloca ptr, align 8
  store ptr %0, ptr %2, align 8, !tbaa !219
  %3 = load ptr, ptr %2, align 8
  %4 = getelementptr inbounds nuw %"class.std::__uniq_ptr_impl.40", ptr %3, i32 0, i32 0
  %5 = call noundef nonnull align 1 dereferenceable(1) ptr @_ZSt3getILm1EJPN4LIEF2PE11ContentInfo7ContentESt14default_deleteIS3_EEERNSt13tuple_elementIXT_ESt5tupleIJDpT0_EEE4typeERSB_(ptr noundef nonnull align 8 dereferenceable(8) %4) #20
  ret ptr %5
}

; Function Attrs: mustprogress nounwind uwtable
define linkonce_odr noundef nonnull align 8 dereferenceable(8) ptr @_ZSt3getILm0EJPN4LIEF2PE11ContentInfo7ContentESt14default_deleteIS3_EEERNSt13tuple_elementIXT_ESt5tupleIJDpT0_EEE4typeERSB_(ptr noundef nonnull align 8 dereferenceable(8) %0) #1 comdat {
  %2 = alloca ptr, align 8
  store ptr %0, ptr %2, align 8, !tbaa !223
  %3 = load ptr, ptr %2, align 8, !tbaa !223
  %4 = call noundef nonnull align 8 dereferenceable(8) ptr @_ZSt12__get_helperILm0EPN4LIEF2PE11ContentInfo7ContentEJSt14default_deleteIS3_EEERT0_RSt11_Tuple_implIXT_EJS7_DpT1_EE(ptr noundef nonnull align 8 dereferenceable(8) %3) #20
  ret ptr %4
}

; Function Attrs: mustprogress nounwind uwtable
define linkonce_odr hidden void @_ZNKSt14default_deleteIN4LIEF2PE11ContentInfo7ContentEEclEPS3_(ptr noundef nonnull align 1 dereferenceable(1) %0, ptr noundef %1) #1 comdat align 2 {
  %3 = alloca ptr, align 8
  %4 = alloca ptr, align 8
  store ptr %0, ptr %3, align 8, !tbaa !221
  store ptr %1, ptr %4, align 8, !tbaa !128
  %5 = load ptr, ptr %4, align 8, !tbaa !128
  %6 = icmp eq ptr %5, null
  br i1 %6, label %11, label %7

7:                                                ; preds = %2
  %8 = load ptr, ptr %5, align 8, !tbaa !17
  %9 = getelementptr inbounds ptr, ptr %8, i64 3
  %10 = load ptr, ptr %9, align 8
  call void %10(ptr noundef nonnull align 8 dereferenceable(40) %5) #20
  br label %11

11:                                               ; preds = %7, %2
  ret void
}

; Function Attrs: mustprogress nounwind uwtable
define linkonce_odr hidden noundef nonnull align 1 dereferenceable(1) ptr @_ZNSt10unique_ptrIN4LIEF2PE11ContentInfo7ContentESt14default_deleteIS3_EE11get_deleterEv(ptr noundef nonnull align 8 dereferenceable(8) %0) #1 comdat align 2 {
  %2 = alloca ptr, align 8
  store ptr %0, ptr %2, align 8, !tbaa !215
  %3 = load ptr, ptr %2, align 8
  %4 = getelementptr inbounds nuw %"class.std::unique_ptr.38", ptr %3, i32 0, i32 0
  %5 = call noundef nonnull align 1 dereferenceable(1) ptr @_ZNSt15__uniq_ptr_implIN4LIEF2PE11ContentInfo7ContentESt14default_deleteIS3_EE10_M_deleterEv(ptr noundef nonnull align 8 dereferenceable(8) %4) #20
  ret ptr %5
}

; Function Attrs: mustprogress nounwind uwtable
define linkonce_odr hidden noundef nonnull align 8 dereferenceable(8) ptr @_ZNSt15__uniq_ptr_implIN4LIEF2PE11ContentInfo7ContentESt14default_deleteIS3_EE6_M_ptrEv(ptr noundef nonnull align 8 dereferenceable(8) %0) #1 comdat align 2 {
  %2 = alloca ptr, align 8
  store ptr %0, ptr %2, align 8, !tbaa !219
  %3 = load ptr, ptr %2, align 8
  %4 = getelementptr inbounds nuw %"class.std::__uniq_ptr_impl.40", ptr %3, i32 0, i32 0
  %5 = call noundef nonnull align 8 dereferenceable(8) ptr @_ZSt3getILm0EJPN4LIEF2PE11ContentInfo7ContentESt14default_deleteIS3_EEERNSt13tuple_elementIXT_ESt5tupleIJDpT0_EEE4typeERSB_(ptr noundef nonnull align 8 dereferenceable(8) %4) #20
  ret ptr %5
}

; Function Attrs: mustprogress nounwind uwtable
define linkonce_odr hidden void @_ZNSt10unique_ptrIN4LIEF2PE11ContentInfo7ContentESt14default_deleteIS3_EED2Ev(ptr noundef nonnull align 8 dereferenceable(8) %0) unnamed_addr #1 comdat align 2 {
  %2 = alloca ptr, align 8
  %3 = alloca ptr, align 8
  store ptr %0, ptr %2, align 8, !tbaa !215
  %4 = load ptr, ptr %2, align 8
  call void @llvm.lifetime.start.p0(i64 8, ptr %3) #20
  %5 = getelementptr inbounds nuw %"class.std::unique_ptr.38", ptr %4, i32 0, i32 0
  %6 = call noundef nonnull align 8 dereferenceable(8) ptr @_ZNSt15__uniq_ptr_implIN4LIEF2PE11ContentInfo7ContentESt14default_deleteIS3_EE6_M_ptrEv(ptr noundef nonnull align 8 dereferenceable(8) %5) #20
  store ptr %6, ptr %3, align 8, !tbaa !217
  %7 = load ptr, ptr %3, align 8, !tbaa !217
  %8 = load ptr, ptr %7, align 8, !tbaa !128
  %9 = icmp ne ptr %8, null
  br i1 %9, label %10, label %14

10:                                               ; preds = %1
  %11 = call noundef nonnull align 1 dereferenceable(1) ptr @_ZNSt10unique_ptrIN4LIEF2PE11ContentInfo7ContentESt14default_deleteIS3_EE11get_deleterEv(ptr noundef nonnull align 8 dereferenceable(8) %4) #20
  %12 = load ptr, ptr %3, align 8, !tbaa !217
  %13 = load ptr, ptr %12, align 8, !tbaa !128
  call void @_ZNKSt14default_deleteIN4LIEF2PE11ContentInfo7ContentEEclEPS3_(ptr noundef nonnull align 1 dereferenceable(1) %11, ptr noundef %13)
  br label %14

14:                                               ; preds = %10, %1
  %15 = load ptr, ptr %3, align 8, !tbaa !217
  store ptr null, ptr %15, align 8, !tbaa !128
  call void @llvm.lifetime.end.p0(i64 8, ptr %3) #20
  ret void
}

; Function Attrs: mustprogress nounwind uwtable
define linkonce_odr hidden void @_ZN4LIEF2PE11ContentInfoD2Ev(ptr noundef nonnull align 8 dereferenceable(16) %0) unnamed_addr #1 comdat align 2 {
  %2 = alloca ptr, align 8
  store ptr %0, ptr %2, align 8, !tbaa !61
  %3 = load ptr, ptr %2, align 8
  store ptr getelementptr inbounds inrange(-16, 40) ({ [7 x ptr] }, ptr @_ZTVN4LIEF2PE11ContentInfoE, i32 0, i32 0, i32 2), ptr %3, align 8, !tbaa !17
  %4 = getelementptr inbounds nuw %"class.LIEF::PE::ContentInfo", ptr %3, i32 0, i32 1
  call void @_ZNSt10unique_ptrIN4LIEF2PE11ContentInfo7ContentESt14default_deleteIS3_EED2Ev(ptr noundef nonnull align 8 dereferenceable(8) %4) #20
  call void @_ZN4LIEF6ObjectD2Ev(ptr noundef nonnull align 8 dereferenceable(8) %3) #20
  ret void
}

; Function Attrs: mustprogress nounwind uwtable
define noundef nonnull align 8 dereferenceable(120) ptr @_ZN4LIEF2PE9SignatureaSERKS1_(ptr noundef nonnull align 8 dereferenceable(120) %0, ptr noundef nonnull align 8 dereferenceable(120) %1) #1 align 2 {
  %3 = alloca ptr, align 8
  %4 = alloca ptr, align 8
  %5 = alloca %"class.LIEF::PE::ContentInfo", align 8
  store ptr %0, ptr %3, align 8, !tbaa !15
  store ptr %1, ptr %4, align 8, !tbaa !15
  %6 = load ptr, ptr %3, align 8
  %7 = load ptr, ptr %4, align 8, !tbaa !15
  %8 = call noundef nonnull align 8 dereferenceable(8) ptr @_ZN4LIEF6ObjectaSERKS0_(ptr noundef nonnull align 8 dereferenceable(8) %6, ptr noundef nonnull align 8 dereferenceable(8) %7)
  %9 = getelementptr inbounds nuw %"class.LIEF::PE::Signature", ptr %6, i32 0, i32 1
  %10 = load ptr, ptr %4, align 8
  %11 = getelementptr inbounds nuw %"class.LIEF::PE::Signature", ptr %10, i32 0, i32 1
  call void @llvm.memcpy.p0.p0.i64(ptr align 8 %9, ptr align 8 %11, i64 8, i1 false)
  %12 = getelementptr inbounds nuw %"class.LIEF::PE::Signature", ptr %6, i32 0, i32 3
  %13 = load ptr, ptr %4, align 8, !tbaa !15
  %14 = getelementptr inbounds nuw %"class.LIEF::PE::Signature", ptr %13, i32 0, i32 3
  call void @_ZN4LIEF2PE11ContentInfoC1ERKS1_(ptr noundef nonnull align 8 dereferenceable(16) %5, ptr noundef nonnull align 8 dereferenceable(16) %14)
  %15 = call noundef nonnull align 8 dereferenceable(16) ptr @_ZN4LIEF2PE11ContentInfoaSES1_(ptr noundef nonnull align 8 dereferenceable(16) %12, ptr noundef %5)
  call void @_ZN4LIEF2PE11ContentInfoD2Ev(ptr noundef nonnull align 8 dereferenceable(16) %5) #20
  %16 = getelementptr inbounds nuw %"class.LIEF::PE::Signature", ptr %6, i32 0, i32 4
  %17 = load ptr, ptr %4, align 8, !tbaa !15
  %18 = getelementptr inbounds nuw %"class.LIEF::PE::Signature", ptr %17, i32 0, i32 4
  %19 = call noundef nonnull align 8 dereferenceable(24) ptr @_ZNSt6vectorIN4LIEF2PE4x509ESaIS2_EEaSERKS4_(ptr noundef nonnull align 8 dereferenceable(24) %16, ptr noundef nonnull align 8 dereferenceable(24) %18)
  %20 = getelementptr inbounds nuw %"class.LIEF::PE::Signature", ptr %6, i32 0, i32 5
  %21 = load ptr, ptr %4, align 8, !tbaa !15
  %22 = getelementptr inbounds nuw %"class.LIEF::PE::Signature", ptr %21, i32 0, i32 5
  %23 = call noundef nonnull align 8 dereferenceable(24) ptr @_ZNSt6vectorIN4LIEF2PE10SignerInfoESaIS2_EEaSERKS4_(ptr noundef nonnull align 8 dereferenceable(24) %20, ptr noundef nonnull align 8 dereferenceable(24) %22)
  %24 = getelementptr inbounds nuw %"class.LIEF::PE::Signature", ptr %6, i32 0, i32 6
  %25 = load ptr, ptr %4, align 8
  %26 = getelementptr inbounds nuw %"class.LIEF::PE::Signature", ptr %25, i32 0, i32 6
  call void @llvm.memcpy.p0.p0.i64(ptr align 8 %24, ptr align 8 %26, i64 16, i1 false)
  %27 = getelementptr inbounds nuw %"class.LIEF::PE::Signature", ptr %6, i32 0, i32 8
  %28 = load ptr, ptr %4, align 8, !tbaa !15
  %29 = getelementptr inbounds nuw %"class.LIEF::PE::Signature", ptr %28, i32 0, i32 8
  %30 = call noundef nonnull align 8 dereferenceable(24) ptr @_ZNSt6vectorIhSaIhEEaSERKS1_(ptr noundef nonnull align 8 dereferenceable(24) %27, ptr noundef nonnull align 8 dereferenceable(24) %29)
  ret ptr %6
}