; Function Attrs: mustprogress nounwind uwtable
define noundef nonnull align 8 dereferenceable(120) ptr @_ZN4LIEF2PE9SignatureaSERKS1_(ptr noundef nonnull returned align 8 dereferenceable(120) %0, ptr noundef nonnull align 8 dereferenceable(120) %1) local_unnamed_addr #1 align 2 {
  %3 = alloca %"class.LIEF::PE::ContentInfo", align 8
  %4 = tail call noundef nonnull align 8 dereferenceable(8) ptr @_ZN4LIEF6ObjectaSERKS0_(ptr noundef nonnull align 8 dereferenceable(8) %0, ptr noundef nonnull align 8 dereferenceable(8) %1) #21
  %5 = getelementptr inbounds nuw i8, ptr %0, i64 8
  %6 = getelementptr inbounds nuw i8, ptr %1, i64 8
  %7 = load i64, ptr %6, align 8
  store i64 %7, ptr %5, align 8
  %8 = getelementptr inbounds nuw i8, ptr %0, i64 16
  %9 = getelementptr inbounds nuw i8, ptr %1, i64 16
  call void @_ZN4LIEF2PE11ContentInfoC1ERKS1_(ptr noundef nonnull align 8 dereferenceable(16) %3, ptr noundef nonnull align 8 dereferenceable(16) %9) #21
  %10 = call noundef nonnull align 8 dereferenceable(16) ptr @_ZN4LIEF2PE11ContentInfoaSES1_(ptr noundef nonnull align 8 dereferenceable(16) %8, ptr noundef nonnull %3) #21
  store ptr getelementptr inbounds nuw inrange(-16, 40) (i8, ptr @_ZTVN4LIEF2PE11ContentInfoE, i64 16), ptr %3, align 8, !tbaa !3
  %11 = getelementptr inbounds nuw i8, ptr %3, i64 8
  %12 = load ptr, ptr %11, align 8, !tbaa !54
  %.not.i.i = icmp eq ptr %12, null
  br i1 %.not.i.i, label %_ZN4LIEF2PE11ContentInfoD2Ev.exit, label %_ZNKSt14default_deleteIN4LIEF2PE11ContentInfo7ContentEEclEPS3_.exit.i.i

_ZNKSt14default_deleteIN4LIEF2PE11ContentInfo7ContentEEclEPS3_.exit.i.i: ; preds = %2
  %13 = load ptr, ptr %12, align 8, !tbaa !3
  %14 = getelementptr inbounds nuw i8, ptr %13, i64 24
  %15 = load ptr, ptr %14, align 8
  call void %15(ptr noundef nonnull align 8 dereferenceable(40) %12) #21
  br label %_ZN4LIEF2PE11ContentInfoD2Ev.exit

_ZN4LIEF2PE11ContentInfoD2Ev.exit:                ; preds = %2, %_ZNKSt14default_deleteIN4LIEF2PE11ContentInfo7ContentEEclEPS3_.exit.i.i
  store ptr null, ptr %11, align 8, !tbaa !54
  call void @_ZN4LIEF6ObjectD2Ev(ptr noundef nonnull align 8 dereferenceable(16) %3) #21
  %16 = getelementptr inbounds nuw i8, ptr %0, i64 32
  %17 = getelementptr inbounds nuw i8, ptr %1, i64 32
  %18 = call noundef nonnull align 8 dereferenceable(24) ptr @_ZNSt6vectorIN4LIEF2PE4x509ESaIS2_EEaSERKS4_(ptr noundef nonnull align 8 dereferenceable(24) %16, ptr noundef nonnull align 8 dereferenceable(24) %17)
  %19 = getelementptr inbounds nuw i8, ptr %0, i64 56
  %20 = getelementptr inbounds nuw i8, ptr %1, i64 56
  %21 = call noundef nonnull align 8 dereferenceable(24) ptr @_ZNSt6vectorIN4LIEF2PE10SignerInfoESaIS2_EEaSERKS4_(ptr noundef nonnull align 8 dereferenceable(24) %19, ptr noundef nonnull align 8 dereferenceable(24) %20)
  %22 = getelementptr inbounds nuw i8, ptr %0, i64 80
  %23 = getelementptr inbounds nuw i8, ptr %1, i64 80
  call void @llvm.memcpy.p0.p0.i64(ptr noundef nonnull align 8 dereferenceable(16) %22, ptr noundef nonnull align 8 dereferenceable(16) %23, i64 16, i1 false)
  %24 = getelementptr inbounds nuw i8, ptr %0, i64 96
  %25 = getelementptr inbounds nuw i8, ptr %1, i64 96
  %26 = call noundef nonnull align 8 dereferenceable(24) ptr @_ZNSt6vectorIhSaIhEEaSERKS1_(ptr noundef nonnull align 8 dereferenceable(24) %24, ptr noundef nonnull align 8 dereferenceable(24) %25)
  ret ptr %0
}